; Function Attrs: mustprogress uwtable
define hidden i32 @_ZN3sat9lookahead6chooseEv(ptr noundef nonnull align 8 dereferenceable(1160) %this) local_unnamed_addr #3 align 2 {
entry:
  %m_inconsistent.i.i = getelementptr inbounds i8, ptr %this, i64 832
  %.b7 = load i1, ptr @_ZN3satL12null_literalE.0, align 4
  %0 = select i1 %.b7, i32 -2, i32 0
  %m_lookahead.i = getelementptr inbounds i8, ptr %this, i64 1152
  %1 = load i8, ptr %m_inconsistent.i.i, align 8
  %2 = and i8 %1, 1
  %tobool.i.not.i1 = icmp eq i8 %2, 0
  br i1 %tobool.i.not.i1, label %while.body.i.preheader, label %_ZN3sat9lookahead11choose_baseEv.exit

while.body.i.preheader:                           ; preds = %entry
  tail call void @_ZN3sat9lookahead10pre_selectEv(ptr noundef nonnull align 8 dereferenceable(1160) %this)
  %3 = load ptr, ptr %m_lookahead.i, align 8
  %cmp.i1.i8 = icmp eq ptr %3, null
  br i1 %cmp.i1.i8, label %_ZN3sat9lookahead11choose_baseEv.exit, label %_ZNK6vectorIN3sat9lookahead14literal_offsetELb0EjE5emptyEv.exit.i

land.rhs.i:                                       ; preds = %if.end6.i
  %4 = load i8, ptr %m_inconsistent.i.i, align 8
  %5 = and i8 %4, 1
  %tobool.i.not.i = icmp eq i8 %5, 0
  br i1 %tobool.i.not.i, label %while.body.i, label %_ZN3sat9lookahead11choose_baseEv.exit, !llvm.loop !74

while.body.i:                                     ; preds = %land.rhs.i
  tail call void @_ZN3sat9lookahead10pre_selectEv(ptr noundef nonnull align 8 dereferenceable(1160) %this)
  %6 = load ptr, ptr %m_lookahead.i, align 8
  %cmp.i1.i = icmp eq ptr %6, null
  br i1 %cmp.i1.i, label %_ZN3sat9lookahead11choose_baseEv.exit, label %_ZNK6vectorIN3sat9lookahead14literal_offsetELb0EjE5emptyEv.exit.i, !llvm.loop !74

_ZNK6vectorIN3sat9lookahead14literal_offsetELb0EjE5emptyEv.exit.i: ; preds = %while.body.i.preheader, %while.body.i
  %7 = phi ptr [ %6, %while.body.i ], [ %3, %while.body.i.preheader ]
  %storemerge6.i29 = phi i32 [ %call7.i, %while.body.i ], [ %0, %while.body.i.preheader ]
  %arrayidx.i.i = getelementptr inbounds i8, ptr %7, i64 -4
  %8 = load i32, ptr %arrayidx.i.i, align 4
  %cmp3.i.i = icmp eq i32 %8, 0
  br i1 %cmp3.i.i, label %_ZN3sat9lookahead11choose_baseEv.exit, label %if.end.i

if.end.i:                                         ; preds = %_ZNK6vectorIN3sat9lookahead14literal_offsetELb0EjE5emptyEv.exit.i
  tail call void @_ZN3sat9lookahead24compute_lookahead_rewardEv(ptr noundef nonnull align 8 dereferenceable(1160) %this)
  %9 = load i8, ptr %m_inconsistent.i.i, align 8
  %10 = and i8 %9, 1
  %tobool.i3.not.i = icmp eq i8 %10, 0
  br i1 %tobool.i3.not.i, label %if.end6.i, label %_ZN3sat9lookahead11choose_baseEv.exit

if.end6.i:                                        ; preds = %if.end.i
  %call7.i = tail call i32 @_ZN3sat9lookahead14select_literalEv(ptr noundef nonnull align 8 dereferenceable(1160) %this)
  %.b = load i1, ptr @_ZN3satL12null_literalE.0, align 4
  %11 = select i1 %.b, i32 -2, i32 0
  %cmp.i.i = icmp eq i32 %call7.i, %11
  br i1 %cmp.i.i, label %land.rhs.i, label %_ZN3sat9lookahead11choose_baseEv.exit, !llvm.loop !74

_ZN3sat9lookahead11choose_baseEv.exit:            ; preds = %land.rhs.i, %while.body.i, %_ZNK6vectorIN3sat9lookahead14literal_offsetELb0EjE5emptyEv.exit.i, %if.end.i, %if.end6.i, %while.body.i.preheader, %entry
  %storemerge.lcssa.ph.i = phi i32 [ %0, %entry ], [ %0, %while.body.i.preheader ], [ %call7.i, %if.end6.i ], [ %storemerge6.i29, %if.end.i ], [ %storemerge6.i29, %_ZNK6vectorIN3sat9lookahead14literal_offsetELb0EjE5emptyEv.exit.i ], [ %call7.i, %while.body.i ], [ %call7.i, %land.rhs.i ]
  ret i32 %storemerge.lcssa.ph.i
}